; Function Attrs: nofree norecurse nosync nounwind memory(readwrite, inaccessiblemem: none) uwtable
define hidden void @ByteIndexedBmToIntArgbScaleXparOver(ptr noundef %0, ptr noundef %1, i32 noundef %2, i32 noundef %3, i32 noundef %4, i32 noundef %5, i32 noundef %6, i32 noundef %7, i32 noundef %8, ptr nocapture noundef readonly %9, ptr nocapture noundef readonly %10, ptr nocapture readnone %11, ptr nocapture readnone %12) #1 {
  %14 = getelementptr inbounds i8, ptr %9, i64 40
  %15 = load ptr, ptr %14, align 8
  %16 = getelementptr inbounds i8, ptr %9, i64 32
  %17 = load i32, ptr %16, align 8
  %18 = getelementptr inbounds i8, ptr %10, i64 32
  %19 = load i32, ptr %18, align 8
  %20 = shl i32 %2, 2
  %21 = sub i32 %19, %20
  %22 = sext i32 %21 to i64
  %23 = ptrtoint ptr %0 to i64
  %24 = sext i32 %17 to i64
  br label %25

25:                                               ; preds = %47, %13
  %.031 = phi ptr [ %1, %13 ], [ %49, %47 ]
  %.028 = phi i32 [ %5, %13 ], [ %50, %47 ]
  %.0 = phi i32 [ %3, %13 ], [ %51, %47 ]
  %26 = ashr i32 %.028, %8
  %27 = sext i32 %26 to i64
  %28 = mul nsw i64 %27, %24
  %29 = add nsw i64 %28, %23
  %30 = inttoptr i64 %29 to ptr
  br label %31

31:                                               ; preds = %41, %25
  %.1 = phi ptr [ %.031, %25 ], [ %44, %41 ]
  %.030 = phi i32 [ %2, %25 ], [ %46, %41 ]
  %.029 = phi i32 [ %4, %25 ], [ %45, %41 ]
  %32 = ashr i32 %.029, %8
  %33 = sext i32 %32 to i64
  %34 = getelementptr inbounds i8, ptr %30, i64 %33
  %35 = load i8, ptr %34, align 1
  %36 = zext i8 %35 to i64
  %37 = getelementptr inbounds i32, ptr %15, i64 %36
  %38 = load i32, ptr %37, align 4
  %39 = icmp slt i32 %38, 0
  br i1 %39, label %40, label %41

40:                                               ; preds = %31
  store i32 %38, ptr %.1, align 4
  br label %41

41:                                               ; preds = %31, %40
  %42 = ptrtoint ptr %.1 to i64
  %43 = add nsw i64 %42, 4
  %44 = inttoptr i64 %43 to ptr
  %45 = add nsw i32 %.029, %6
  %46 = add i32 %.030, -1
  %.not = icmp eq i32 %46, 0
  br i1 %.not, label %47, label %31, !llvm.loop !15

47:                                               ; preds = %41
  %48 = add nsw i64 %43, %22
  %49 = inttoptr i64 %48 to ptr
  %50 = add nsw i32 %.028, %7
  %51 = add i32 %.0, -1
  %.not35 = icmp eq i32 %51, 0
  br i1 %.not35, label %52, label %25, !llvm.loop !16

52:                                               ; preds = %47
  ret void
}